target datalayout = "e-m:e-p270:32:32-p271:32:32-p272:64:64-i64:64-i128:128-f80:128-n8:16:32:64-S128"
target triple = "x86_64-pc-linux-gnu"

%"struct.std::atomic" = type { %"struct.std::__atomic_base" }
%"struct.std::__atomic_base" = type { i32 }
%"class.pxrInternal_v0_24__pxrReserved__::TraceScopeAuto" = type <{ ptr, %"struct.pxrInternal_v0_24__pxrReserved__::ArchIntervalTimer", [4 x i8] }>
%"struct.pxrInternal_v0_24__pxrReserved__::ArchIntervalTimer" = type { i8, i32, i32 }
%"class.pxrInternal_v0_24__pxrReserved__::TraceKey" = type { ptr }

@_ZN32pxrInternal_v0_24__pxrReserved__14TraceCollector10_isEnabledE = external global %"struct.std::atomic", align 4

; Function Attrs: mustprogress nounwind uwtable
define linkonce_odr noundef i64 @_ZN32pxrInternal_v0_24__pxrReserved__19ArchGetStopTickTimeEv() #4 comdat {
  %1 = alloca i32, align 4
  %2 = alloca i64, align 8
  store i32 5, ptr %1, align 4
  %3 = load i32, ptr %1, align 4
  switch i32 %3, label %8 [
    i32 1, label %4
    i32 2, label %4
    i32 3, label %5
    i32 4, label %6
    i32 5, label %7
  ]

4:                                                ; preds = %0, %0
  fence syncscope("singlethread") acquire
  br label %8

5:                                                ; preds = %0
  fence syncscope("singlethread") release
  br label %8

6:                                                ; preds = %0
  fence syncscope("singlethread") acq_rel
  br label %8

7:                                                ; preds = %0
  fence syncscope("singlethread") seq_cst
  br label %8

8:                                                ; preds = %7, %6, %5, %4, %0
  %9 = call i64 asm sideeffect "rdtscp\0A\09shl $$32, %rdx\0A\09or %rdx, $0\0A\09lfence", "={ax},~{rcx},~{rdx},~{cc},~{dirflag},~{fpsr},~{flags}"() #5, !srcloc !6
  store i64 %9, ptr %2, align 8
  %10 = load i64, ptr %2, align 8
  ret i64 %10
}

; Function Attrs: mustprogress nounwind uwtable
define linkonce_odr void @_ZN32pxrInternal_v0_24__pxrReserved__17ArchIntervalTimer5StartEv(ptr noundef nonnull align 4 dereferenceable(12) %0) #4 comdat align 2 {
  %2 = alloca i32, align 4
  %3 = alloca ptr, align 8
  store ptr %0, ptr %3, align 8
  %4 = load ptr, ptr %3, align 8
  %5 = getelementptr inbounds nuw %"struct.pxrInternal_v0_24__pxrReserved__::ArchIntervalTimer", ptr %4, i32 0, i32 0
  store i8 1, ptr %5, align 4
  store i32 5, ptr %2, align 4
  %6 = load i32, ptr %2, align 4
  switch i32 %6, label %11 [
    i32 1, label %7
    i32 2, label %7
    i32 3, label %8
    i32 4, label %9
    i32 5, label %10
  ]

7:                                                ; preds = %1, %1
  fence syncscope("singlethread") acquire
  br label %11

8:                                                ; preds = %1
  fence syncscope("singlethread") release
  br label %11

9:                                                ; preds = %1
  fence syncscope("singlethread") acq_rel
  br label %11

10:                                               ; preds = %1
  fence syncscope("singlethread") seq_cst
  br label %11

11:                                               ; preds = %10, %9, %8, %7, %1
  %12 = getelementptr inbounds nuw %"struct.pxrInternal_v0_24__pxrReserved__::ArchIntervalTimer", ptr %4, i32 0, i32 1
  %13 = getelementptr inbounds nuw %"struct.pxrInternal_v0_24__pxrReserved__::ArchIntervalTimer", ptr %4, i32 0, i32 2
  %14 = call { i32, i32 } asm sideeffect "lfence\0A\09rdtsc\0A\09lfence", "={ax},={dx},~{dirflag},~{fpsr},~{flags}"() #5, !srcloc !5
  %15 = extractvalue { i32, i32 } %14, 0
  %16 = extractvalue { i32, i32 } %14, 1
  store i32 %15, ptr %12, align 4
  store i32 %16, ptr %13, align 4
  ret void
}

; Function Attrs: mustprogress nounwind uwtable
define linkonce_odr noundef i32 @_ZStanSt12memory_orderSt23__memory_order_modifier(i32 noundef %0, i32 noundef %1) #4 comdat {
  %3 = alloca i32, align 4
  %4 = alloca i32, align 4
  store i32 %0, ptr %3, align 4
  store i32 %1, ptr %4, align 4
  %5 = load i32, ptr %3, align 4
  %6 = load i32, ptr %4, align 4
  %7 = and i32 %5, %6
  ret i32 %7
}

; Function Attrs: mustprogress nounwind uwtable
define linkonce_odr noundef i64 @_ZNK32pxrInternal_v0_24__pxrReserved__17ArchIntervalTimer13GetStartTicksEv(ptr noundef nonnull align 4 dereferenceable(12) %0) #4 comdat align 2 {
  %2 = alloca ptr, align 8
  store ptr %0, ptr %2, align 8
  %3 = load ptr, ptr %2, align 8
  %4 = getelementptr inbounds nuw %"struct.pxrInternal_v0_24__pxrReserved__::ArchIntervalTimer", ptr %3, i32 0, i32 2
  %5 = load i32, ptr %4, align 4
  %6 = zext i32 %5 to i64
  %7 = shl i64 %6, 32
  %8 = getelementptr inbounds nuw %"struct.pxrInternal_v0_24__pxrReserved__::ArchIntervalTimer", ptr %3, i32 0, i32 1
  %9 = load i32, ptr %8, align 4
  %10 = zext i32 %9 to i64
  %11 = add i64 %7, %10
  ret i64 %11
}

; Function Attrs: mustprogress nounwind uwtable
define linkonce_odr void @_ZN32pxrInternal_v0_24__pxrReserved__8TraceKeyC2ERKNS_18TraceStaticKeyDataE(ptr noundef nonnull align 8 dereferenceable(8) %0, ptr noundef nonnull align 8 dereferenceable(24) %1) unnamed_addr #4 comdat align 2 {
  %3 = alloca ptr, align 8
  %4 = alloca ptr, align 8
  store ptr %0, ptr %3, align 8
  store ptr %1, ptr %4, align 8
  %5 = load ptr, ptr %3, align 8
  %6 = getelementptr inbounds nuw %"class.pxrInternal_v0_24__pxrReserved__::TraceKey", ptr %5, i32 0, i32 0
  %7 = load ptr, ptr %4, align 8
  store ptr %7, ptr %6, align 8
  ret void
}

; Function Attrs: mustprogress uwtable
define linkonce_odr noundef i64 @_ZN32pxrInternal_v0_24__pxrReserved__17ArchIntervalTimer15GetCurrentTicksEv(ptr noundef nonnull align 4 dereferenceable(12) %0) #0 comdat align 2 {
  %2 = alloca ptr, align 8
  store ptr %0, ptr %2, align 8
  %3 = call noundef i64 @_ZN32pxrInternal_v0_24__pxrReserved__19ArchGetStopTickTimeEv()
  ret i64 %3
}

; Function Attrs: mustprogress nounwind uwtable
define linkonce_odr noundef zeroext i1 @_ZNK32pxrInternal_v0_24__pxrReserved__17ArchIntervalTimer9IsStartedEv(ptr noundef nonnull align 4 dereferenceable(12) %0) #4 comdat align 2 {
  %2 = alloca ptr, align 8
  store ptr %0, ptr %2, align 8
  %3 = load ptr, ptr %2, align 8
  %4 = getelementptr inbounds nuw %"struct.pxrInternal_v0_24__pxrReserved__::ArchIntervalTimer", ptr %3, i32 0, i32 0
  %5 = load i8, ptr %4, align 4
  %6 = trunc i8 %5 to i1
  ret i1 %6
}

; Function Attrs: noreturn nounwind uwtable
define linkonce_odr hidden void @__clang_call_terminate(ptr noundef %0) #7 comdat {
  %2 = call ptr @__cxa_begin_catch(ptr %0) #5
  call void @_ZSt9terminatev() #16
  unreachable
}

; Function Attrs: mustprogress uwtable
define linkonce_odr void @_ZN32pxrInternal_v0_24__pxrReserved__17ArchIntervalTimerC2Eb(ptr noundef nonnull align 4 dereferenceable(12) %0, i1 noundef zeroext %1) unnamed_addr #0 comdat align 2 {
  %3 = alloca ptr, align 8
  %4 = alloca i8, align 1
  store ptr %0, ptr %3, align 8
  %5 = zext i1 %1 to i8
  store i8 %5, ptr %4, align 1
  %6 = load ptr, ptr %3, align 8
  %7 = getelementptr inbounds nuw %"struct.pxrInternal_v0_24__pxrReserved__::ArchIntervalTimer", ptr %6, i32 0, i32 0
  %8 = load i8, ptr %4, align 1
  %9 = trunc i8 %8 to i1
  %10 = zext i1 %9 to i8
  store i8 %10, ptr %7, align 4
  %11 = getelementptr inbounds nuw %"struct.pxrInternal_v0_24__pxrReserved__::ArchIntervalTimer", ptr %6, i32 0, i32 1
  store i32 0, ptr %11, align 4
  %12 = getelementptr inbounds nuw %"struct.pxrInternal_v0_24__pxrReserved__::ArchIntervalTimer", ptr %6, i32 0, i32 2
  store i32 0, ptr %12, align 4
  %13 = getelementptr inbounds nuw %"struct.pxrInternal_v0_24__pxrReserved__::ArchIntervalTimer", ptr %6, i32 0, i32 0
  %14 = load i8, ptr %13, align 4
  %15 = trunc i8 %14 to i1
  br i1 %15, label %16, label %17

16:                                               ; preds = %2
  call void @_ZN32pxrInternal_v0_24__pxrReserved__17ArchIntervalTimer5StartEv(ptr noundef nonnull align 4 dereferenceable(12) %6)
  br label %17

17:                                               ; preds = %16, %2
  ret void
}

; Function Attrs: mustprogress nounwind uwtable
define linkonce_odr noundef zeroext i1 @_ZN32pxrInternal_v0_24__pxrReserved__14TraceCollector9IsEnabledEv() #4 comdat align 2 personality ptr @__gxx_personality_v0 {
  %1 = alloca ptr, align 8
  %2 = alloca i32, align 4
  %3 = alloca i32, align 4
  %4 = alloca i32, align 4
  store ptr @_ZN32pxrInternal_v0_24__pxrReserved__14TraceCollector10_isEnabledE, ptr %1, align 8
  store i32 2, ptr %2, align 4
  %5 = load ptr, ptr %1, align 8
  %6 = load i32, ptr %2, align 4
  %7 = invoke noundef i32 @_ZStanSt12memory_orderSt23__memory_order_modifier(i32 noundef %6, i32 noundef 65535)
          to label %8 unwind label %16

8:                                                ; preds = %0
  store i32 %7, ptr %3, align 4
  %9 = load i32, ptr %2, align 4
  switch i32 %9, label %10 [
    i32 1, label %12
    i32 2, label %12
    i32 5, label %14
  ]

10:                                               ; preds = %8
  %11 = load atomic i32, ptr %5 monotonic, align 4
  store i32 %11, ptr %4, align 4
  br label %19

12:                                               ; preds = %8, %8
  %13 = load atomic i32, ptr %5 acquire, align 4
  store i32 %13, ptr %4, align 4
  br label %19

14:                                               ; preds = %8
  %15 = load atomic i32, ptr %5 seq_cst, align 4
  store i32 %15, ptr %4, align 4
  br label %19

16:                                               ; preds = %0
  %17 = landingpad { ptr, i32 }
          catch ptr null
  %18 = extractvalue { ptr, i32 } %17, 0
  call void @__clang_call_terminate(ptr %18) #16
  unreachable

19:                                               ; preds = %14, %12, %10
  %20 = load i32, ptr %4, align 4
  %21 = icmp eq i32 %20, 1
  ret i1 %21
}

; Function Attrs: mustprogress nounwind uwtable
define linkonce_odr void @_ZN32pxrInternal_v0_24__pxrReserved__14TraceScopeAutoD2Ev(ptr noundef nonnull align 8 dereferenceable(20) %0) unnamed_addr #4 comdat align 2 personality ptr @__gxx_personality_v0 {
  %2 = alloca ptr, align 8
  %3 = alloca i64, align 8
  %4 = alloca %"class.pxrInternal_v0_24__pxrReserved__::TraceKey", align 8
  store ptr %0, ptr %2, align 8
  %5 = load ptr, ptr %2, align 8
  %6 = getelementptr inbounds nuw %"class.pxrInternal_v0_24__pxrReserved__::TraceScopeAuto", ptr %5, i32 0, i32 1
  %7 = invoke noundef zeroext i1 @_ZNK32pxrInternal_v0_24__pxrReserved__17ArchIntervalTimer9IsStartedEv(ptr noundef nonnull align 4 dereferenceable(12) %6)
          to label %8 unwind label %21

8:                                                ; preds = %1
  br i1 %7, label %9, label %20

9:                                                ; preds = %8
  %10 = getelementptr inbounds nuw %"class.pxrInternal_v0_24__pxrReserved__::TraceScopeAuto", ptr %5, i32 0, i32 1
  %11 = invoke noundef i64 @_ZN32pxrInternal_v0_24__pxrReserved__17ArchIntervalTimer15GetCurrentTicksEv(ptr noundef nonnull align 4 dereferenceable(12) %10)
          to label %12 unwind label %21

12:                                               ; preds = %9
  store i64 %11, ptr %3, align 8
  %13 = getelementptr inbounds nuw %"class.pxrInternal_v0_24__pxrReserved__::TraceScopeAuto", ptr %5, i32 0, i32 0
  %14 = load ptr, ptr %13, align 8
  invoke void @_ZN32pxrInternal_v0_24__pxrReserved__8TraceKeyC2ERKNS_18TraceStaticKeyDataE(ptr noundef nonnull align 8 dereferenceable(8) %4, ptr noundef nonnull align 8 dereferenceable(24) %14)
          to label %15 unwind label %21

15:                                               ; preds = %12
  %16 = getelementptr inbounds nuw %"class.pxrInternal_v0_24__pxrReserved__::TraceScopeAuto", ptr %5, i32 0, i32 1
  %17 = invoke noundef i64 @_ZNK32pxrInternal_v0_24__pxrReserved__17ArchIntervalTimer13GetStartTicksEv(ptr noundef nonnull align 4 dereferenceable(12) %16)
          to label %18 unwind label %21

18:                                               ; preds = %15
  %19 = load i64, ptr %3, align 8
  call void @_ZN32pxrInternal_v0_24__pxrReserved__14TraceCollector5ScopeERKNS_8TraceKeyEmm(ptr noundef nonnull align 8 dereferenceable(8) %4, i64 noundef %17, i64 noundef %19) #5
  br label %20

20:                                               ; preds = %18, %8
  ret void

21:                                               ; preds = %15, %12, %9, %1
  %22 = landingpad { ptr, i32 }
          catch ptr null
  %23 = extractvalue { ptr, i32 } %22, 0
  call void @__clang_call_terminate(ptr %23) #16
  unreachable
}

; Function Attrs: mustprogress nounwind uwtable
define linkonce_odr void @_ZN32pxrInternal_v0_24__pxrReserved__14TraceScopeAutoC2ERKNS_18TraceStaticKeyDataE(ptr noundef nonnull align 8 dereferenceable(20) %0, ptr noundef nonnull align 8 dereferenceable(24) %1) unnamed_addr #4 comdat align 2 personality ptr @__gxx_personality_v0 {
  %3 = alloca ptr, align 8
  %4 = alloca ptr, align 8
  store ptr %0, ptr %3, align 8
  store ptr %1, ptr %4, align 8
  %5 = load ptr, ptr %3, align 8
  %6 = getelementptr inbounds nuw %"class.pxrInternal_v0_24__pxrReserved__::TraceScopeAuto", ptr %5, i32 0, i32 0
  %7 = load ptr, ptr %4, align 8
  store ptr %7, ptr %6, align 8
  %8 = getelementptr inbounds nuw %"class.pxrInternal_v0_24__pxrReserved__::TraceScopeAuto", ptr %5, i32 0, i32 1
  %9 = invoke noundef zeroext i1 @_ZN32pxrInternal_v0_24__pxrReserved__14TraceCollector9IsEnabledEv()
          to label %10 unwind label %12

10:                                               ; preds = %2
  invoke void @_ZN32pxrInternal_v0_24__pxrReserved__17ArchIntervalTimerC2Eb(ptr noundef nonnull align 4 dereferenceable(12) %8, i1 noundef zeroext %9)
          to label %11 unwind label %12

11:                                               ; preds = %10
  ret void

12:                                               ; preds = %10, %2
  %13 = landingpad { ptr, i32 }
          catch ptr null
  %14 = extractvalue { ptr, i32 } %13, 0
  call void @__clang_call_terminate(ptr %14) #16
  unreachable
}

; Function Attrs: mustprogress uwtable
define void @_ZN32pxrInternal_v0_24__pxrReserved__45UsdImagingMaterialBindingsResolvingSceneIndex11_PrimsAddedERKNS_16HdSceneIndexBaseERKNS_13TfSmallVectorINS_20HdSceneIndexObserver14AddedPrimEntryELj16EEE(ptr noundef nonnull align 8 dereferenceable(152) %0, ptr noundef nonnull align 8 dereferenceable(120) %1, ptr noundef nonnull align 1 %2) unnamed_addr #0 align 2 personality ptr @__gxx_personality_v0 {
  %4 = alloca ptr, align 8
  %5 = alloca ptr, align 8
  %6 = alloca ptr, align 8
  %7 = alloca %"class.pxrInternal_v0_24__pxrReserved__::TraceScopeAuto", align 8
  %8 = alloca ptr, align 8
  %9 = alloca i32, align 4
  store ptr %0, ptr %4, align 8
  store ptr %1, ptr %5, align 8
  store ptr %2, ptr %6, align 8
  %10 = load ptr, ptr %4, align 8
  call void @_ZN32pxrInternal_v0_24__pxrReserved__14TraceScopeAutoC2ERKNS_18TraceStaticKeyDataE(ptr noundef nonnull align 8 dereferenceable(20) %7, ptr noundef nonnull align 8 dereferenceable(24) @_ZZN32pxrInternal_v0_24__pxrReserved__45UsdImagingMaterialBindingsResolvingSceneIndex11_PrimsAddedERKNS_16HdSceneIndexBaseERKNS_13TfSmallVectorINS_20HdSceneIndexObserver14AddedPrimEntryELj16EEEE16TraceKeyData_266) #5
  %11 = load ptr, ptr %6, align 8
  invoke void @_ZN32pxrInternal_v0_24__pxrReserved__16HdSceneIndexBase15_SendPrimsAddedERKNS_13TfSmallVectorINS_20HdSceneIndexObserver14AddedPrimEntryELj16EEE(ptr noundef nonnull align 8 dereferenceable(120) %10, ptr noundef nonnull align 1 %11)
          to label %12 unwind label %13

12:                                               ; preds = %3
  call void @_ZN32pxrInternal_v0_24__pxrReserved__14TraceScopeAutoD2Ev(ptr noundef nonnull align 8 dereferenceable(20) %7) #5
  ret void

13:                                               ; preds = %3
  %14 = landingpad { ptr, i32 }
          cleanup
  %15 = extractvalue { ptr, i32 } %14, 0
  store ptr %15, ptr %8, align 8
  %16 = extractvalue { ptr, i32 } %14, 1
  store i32 %16, ptr %9, align 4
  call void @_ZN32pxrInternal_v0_24__pxrReserved__14TraceScopeAutoD2Ev(ptr noundef nonnull align 8 dereferenceable(20) %7) #5
  br label %17

17:                                               ; preds = %13
  %18 = load ptr, ptr %8, align 8
  %19 = load i32, ptr %9, align 4
  %20 = insertvalue { ptr, i32 } poison, ptr %18, 0
  %21 = insertvalue { ptr, i32 } %20, i32 %19, 1
  resume { ptr, i32 } %21
}